; Function Attrs: mustprogress nounwind uwtable
define hidden noundef zeroext range(i8 0, 2) i8 @_ZN8JVMCIEnv33transfer_pending_exception_to_jniEP10JavaThreadPS_S2_(ptr noundef %0, ptr noundef %1, ptr noundef %2) local_unnamed_addr #0 align 2 {
  %4 = alloca %class.HotSpotToSharedLibraryExceptionTranslation, align 8
  %5 = alloca %class.Handle, align 8
  %6 = getelementptr inbounds i8, ptr %0, i64 8
  %7 = load ptr, ptr %6, align 8
  %.not = icmp eq ptr %7, null
  br i1 %.not, label %25, label %8

8:                                                ; preds = %3
  %9 = getelementptr inbounds i8, ptr %0, i64 808
  %10 = load ptr, ptr %9, align 8
  %11 = getelementptr inbounds i8, ptr %10, i64 40
  %12 = load ptr, ptr %11, align 8
  %13 = getelementptr inbounds i8, ptr %10, i64 32
  %14 = load ptr, ptr %13, align 8
  %15 = ptrtoint ptr %12 to i64
  %16 = ptrtoint ptr %14 to i64
  %17 = sub i64 %15, %16
  %.not.i.i.i.i = icmp ult i64 %17, 8
  br i1 %.not.i.i.i.i, label %20, label %18

18:                                               ; preds = %8
  %19 = getelementptr inbounds i8, ptr %14, i64 8
  store ptr %19, ptr %13, align 8
  br label %_ZN6HandleC2EP6ThreadP7oopDesc.exit

20:                                               ; preds = %8
  %21 = tail call noundef ptr @_ZN5Arena4growEmN17AllocFailStrategy13AllocFailEnumE(ptr noundef nonnull align 8 dereferenceable(48) %10, i64 noundef 8, i32 noundef 0) #14
  br label %_ZN6HandleC2EP6ThreadP7oopDesc.exit

_ZN6HandleC2EP6ThreadP7oopDesc.exit:              ; preds = %18, %20
  %.0.i.i.i.i = phi ptr [ %14, %18 ], [ %21, %20 ]
  store ptr %7, ptr %.0.i.i.i.i, align 8
  store ptr %.0.i.i.i.i, ptr %5, align 8
  tail call void @_ZN12ThreadShadow23clear_pending_exceptionEv(ptr noundef nonnull align 8 dereferenceable(28) %0) #14
  call void @llvm.lifetime.start.p0(i64 32, ptr nonnull %4)
  %22 = getelementptr inbounds i8, ptr %4, i64 8
  store ptr %1, ptr %22, align 8
  %23 = getelementptr inbounds i8, ptr %4, i64 16
  store ptr %2, ptr %23, align 8
  store ptr getelementptr inbounds inrange(-16, 16) (i8, ptr @_ZTV42HotSpotToSharedLibraryExceptionTranslation, i64 16), ptr %4, align 8
  %24 = getelementptr inbounds i8, ptr %4, i64 24
  store ptr %5, ptr %24, align 8
  call void @_ZN20ExceptionTranslation4doitEP10JavaThread(ptr noundef nonnull align 8 dereferenceable(24) %4, ptr noundef nonnull %0)
  call void @llvm.lifetime.end.p0(i64 32, ptr nonnull %4)
  br label %25

25:                                               ; preds = %3, %_ZN6HandleC2EP6ThreadP7oopDesc.exit
  %.0 = phi i8 [ 1, %_ZN6HandleC2EP6ThreadP7oopDesc.exit ], [ 0, %3 ]
  ret i8 %.0
}